target datalayout = "e-m:e-p270:32:32-p271:32:32-p272:64:64-i64:64-i128:128-f80:128-n8:16:32:64-S128"
target triple = "x86_64-pc-linux-gnu"

%struct.Vec_Int_t_ = type { i32, i32, ptr }

; Function Attrs: inlinehint nounwind uwtable
define internal void @Vec_IntGrow(ptr noundef %0, i32 noundef %1) #2 {
  %3 = alloca ptr, align 8
  %4 = alloca i32, align 4
  store ptr %0, ptr %3, align 8, !tbaa !12
  store i32 %1, ptr %4, align 4, !tbaa !16
  %5 = load ptr, ptr %3, align 8, !tbaa !12
  %6 = getelementptr inbounds nuw %struct.Vec_Int_t_, ptr %5, i32 0, i32 0
  %7 = load i32, ptr %6, align 8, !tbaa !37
  %8 = load i32, ptr %4, align 4, !tbaa !16
  %9 = icmp sge i32 %7, %8
  br i1 %9, label %10, label %11

10:                                               ; preds = %2
  br label %36

11:                                               ; preds = %2
  %12 = load ptr, ptr %3, align 8, !tbaa !12
  %13 = getelementptr inbounds nuw %struct.Vec_Int_t_, ptr %12, i32 0, i32 2
  %14 = load ptr, ptr %13, align 8, !tbaa !38
  %15 = icmp ne ptr %14, null
  br i1 %15, label %16, label %24

16:                                               ; preds = %11
  %17 = load ptr, ptr %3, align 8, !tbaa !12
  %18 = getelementptr inbounds nuw %struct.Vec_Int_t_, ptr %17, i32 0, i32 2
  %19 = load ptr, ptr %18, align 8, !tbaa !38
  %20 = load i32, ptr %4, align 4, !tbaa !16
  %21 = sext i32 %20 to i64
  %22 = mul i64 4, %21
  %23 = call ptr @realloc(ptr noundef %19, i64 noundef %22) #11
  br label %29

24:                                               ; preds = %11
  %25 = load i32, ptr %4, align 4, !tbaa !16
  %26 = sext i32 %25 to i64
  %27 = mul i64 4, %26
  %28 = call noalias ptr @malloc(i64 noundef %27) #12
  br label %29

29:                                               ; preds = %24, %16
  %30 = phi ptr [ %23, %16 ], [ %28, %24 ]
  %31 = load ptr, ptr %3, align 8, !tbaa !12
  %32 = getelementptr inbounds nuw %struct.Vec_Int_t_, ptr %31, i32 0, i32 2
  store ptr %30, ptr %32, align 8, !tbaa !38
  %33 = load i32, ptr %4, align 4, !tbaa !16
  %34 = load ptr, ptr %3, align 8, !tbaa !12
  %35 = getelementptr inbounds nuw %struct.Vec_Int_t_, ptr %34, i32 0, i32 0
  store i32 %33, ptr %35, align 8, !tbaa !37
  br label %36

36:                                               ; preds = %29, %10
  ret void
}

; Function Attrs: inlinehint nounwind uwtable
define internal i32 @Vec_IntEntry(ptr noundef %0, i32 noundef %1) #2 {
  %3 = alloca ptr, align 8
  %4 = alloca i32, align 4
  store ptr %0, ptr %3, align 8, !tbaa !12
  store i32 %1, ptr %4, align 4, !tbaa !16
  %5 = load ptr, ptr %3, align 8, !tbaa !12
  %6 = getelementptr inbounds nuw %struct.Vec_Int_t_, ptr %5, i32 0, i32 2
  %7 = load ptr, ptr %6, align 8, !tbaa !38
  %8 = load i32, ptr %4, align 4, !tbaa !16
  %9 = sext i32 %8 to i64
  %10 = getelementptr inbounds i32, ptr %7, i64 %9
  %11 = load i32, ptr %10, align 4, !tbaa !16
  ret i32 %11
}

; Function Attrs: inlinehint nounwind uwtable
define internal void @Vec_IntPush(ptr noundef %0, i32 noundef %1) #2 {
  %3 = alloca ptr, align 8
  %4 = alloca i32, align 4
  store ptr %0, ptr %3, align 8, !tbaa !12
  store i32 %1, ptr %4, align 4, !tbaa !16
  %5 = load ptr, ptr %3, align 8, !tbaa !12
  %6 = getelementptr inbounds nuw %struct.Vec_Int_t_, ptr %5, i32 0, i32 1
  %7 = load i32, ptr %6, align 4, !tbaa !21
  %8 = load ptr, ptr %3, align 8, !tbaa !12
  %9 = getelementptr inbounds nuw %struct.Vec_Int_t_, ptr %8, i32 0, i32 0
  %10 = load i32, ptr %9, align 8, !tbaa !37
  %11 = icmp eq i32 %7, %10
  br i1 %11, label %12, label %26

12:                                               ; preds = %2
  %13 = load ptr, ptr %3, align 8, !tbaa !12
  %14 = getelementptr inbounds nuw %struct.Vec_Int_t_, ptr %13, i32 0, i32 0
  %15 = load i32, ptr %14, align 8, !tbaa !37
  %16 = icmp slt i32 %15, 16
  br i1 %16, label %17, label %19

17:                                               ; preds = %12
  %18 = load ptr, ptr %3, align 8, !tbaa !12
  call void @Vec_IntGrow(ptr noundef %18, i32 noundef 16)
  br label %25

19:                                               ; preds = %12
  %20 = load ptr, ptr %3, align 8, !tbaa !12
  %21 = load ptr, ptr %3, align 8, !tbaa !12
  %22 = getelementptr inbounds nuw %struct.Vec_Int_t_, ptr %21, i32 0, i32 0
  %23 = load i32, ptr %22, align 8, !tbaa !37
  %24 = mul nsw i32 2, %23
  call void @Vec_IntGrow(ptr noundef %20, i32 noundef %24)
  br label %25

25:                                               ; preds = %19, %17
  br label %26

26:                                               ; preds = %25, %2
  %27 = load i32, ptr %4, align 4, !tbaa !16
  %28 = load ptr, ptr %3, align 8, !tbaa !12
  %29 = getelementptr inbounds nuw %struct.Vec_Int_t_, ptr %28, i32 0, i32 2
  %30 = load ptr, ptr %29, align 8, !tbaa !38
  %31 = load ptr, ptr %3, align 8, !tbaa !12
  %32 = getelementptr inbounds nuw %struct.Vec_Int_t_, ptr %31, i32 0, i32 1
  %33 = load i32, ptr %32, align 4, !tbaa !21
  %34 = add nsw i32 %33, 1
  store i32 %34, ptr %32, align 4, !tbaa !21
  %35 = sext i32 %33 to i64
  %36 = getelementptr inbounds i32, ptr %30, i64 %35
  store i32 %27, ptr %36, align 4, !tbaa !16
  ret void
}

; Function Attrs: inlinehint nounwind uwtable
define internal i32 @Abc_LitNotCond(i32 noundef %0, i32 noundef %1) #2 {
  %3 = alloca i32, align 4
  %4 = alloca i32, align 4
  store i32 %0, ptr %3, align 4, !tbaa !16
  store i32 %1, ptr %4, align 4, !tbaa !16
  %5 = load i32, ptr %3, align 4, !tbaa !16
  %6 = load i32, ptr %4, align 4, !tbaa !16
  %7 = icmp sgt i32 %6, 0
  %8 = zext i1 %7 to i32
  %9 = xor i32 %5, %8
  ret i32 %9
}

; Function Attrs: inlinehint nounwind uwtable
define internal void @Vec_IntClear(ptr noundef %0) #2 {
  %2 = alloca ptr, align 8
  store ptr %0, ptr %2, align 8, !tbaa !12
  %3 = load ptr, ptr %2, align 8, !tbaa !12
  %4 = getelementptr inbounds nuw %struct.Vec_Int_t_, ptr %3, i32 0, i32 1
  store i32 0, ptr %4, align 4, !tbaa !21
  ret void
}

; Function Attrs: nounwind uwtable
define i32 @Gia_ManRebuildNode(ptr noundef %0, ptr noundef %1, ptr noundef %2, ptr noundef %3, ptr noundef %4, ptr noundef %5, ptr noundef %6) #0 {
  %8 = alloca ptr, align 8
  %9 = alloca ptr, align 8
  %10 = alloca ptr, align 8
  %11 = alloca ptr, align 8
  %12 = alloca ptr, align 8
  %13 = alloca ptr, align 8
  %14 = alloca ptr, align 8
  %15 = alloca ptr, align 8
  %16 = alloca ptr, align 8
  %17 = alloca ptr, align 8
  %18 = alloca ptr, align 8
  %19 = alloca i32, align 4
  %20 = alloca i32, align 4
  %21 = alloca i32, align 4
  %22 = alloca i32, align 4
  store ptr %0, ptr %8, align 8, !tbaa !30
  store ptr %1, ptr %9, align 8, !tbaa !32
  store ptr %2, ptr %10, align 8, !tbaa !10
  store ptr %3, ptr %11, align 8, !tbaa !3
  store ptr %4, ptr %12, align 8, !tbaa !12
  store ptr %5, ptr %13, align 8, !tbaa !14
  store ptr %6, ptr %14, align 8, !tbaa !14
  call void @llvm.lifetime.start.p0(i64 8, ptr %15) #10
  %23 = load ptr, ptr %8, align 8, !tbaa !30
  %24 = call ptr @Dsd_ManagerReadDd(ptr noundef %23)
  store ptr %24, ptr %15, align 8, !tbaa !3
  call void @llvm.lifetime.start.p0(i64 8, ptr %16) #10
  call void @llvm.lifetime.start.p0(i64 8, ptr %17) #10
  call void @llvm.lifetime.start.p0(i64 8, ptr %18) #10
  call void @llvm.lifetime.start.p0(i64 4, ptr %19) #10
  call void @llvm.lifetime.start.p0(i64 4, ptr %20) #10
  call void @llvm.lifetime.start.p0(i64 4, ptr %21) #10
  call void @llvm.lifetime.start.p0(i64 4, ptr %22) #10
  store i32 -1, ptr %22, align 4, !tbaa !16
  %25 = load ptr, ptr %9, align 8, !tbaa !32
  %26 = call i32 @Dsd_NodeReadType(ptr noundef %25)
  store i32 %26, ptr %19, align 4, !tbaa !16
  %27 = load ptr, ptr %9, align 8, !tbaa !32
  %28 = call i32 @Dsd_NodeReadDecsNum(ptr noundef %27)
  store i32 %28, ptr %21, align 4, !tbaa !16
  %29 = load ptr, ptr %12, align 8, !tbaa !12
  call void @Vec_IntClear(ptr noundef %29)
  store i32 0, ptr %20, align 4, !tbaa !16
  br label %30

30:                                               ; preds = %52, %7
  %31 = load i32, ptr %20, align 4, !tbaa !16
  %32 = load i32, ptr %21, align 4, !tbaa !16
  %33 = icmp slt i32 %31, %32
  br i1 %33, label %34, label %55

34:                                               ; preds = %30
  %35 = load ptr, ptr %9, align 8, !tbaa !32
  %36 = load i32, ptr %20, align 4, !tbaa !16
  %37 = call ptr @Dsd_NodeReadDec(ptr noundef %35, i32 noundef %36)
  store ptr %37, ptr %18, align 8, !tbaa !32
  %38 = load ptr, ptr %18, align 8, !tbaa !32
  %39 = ptrtoint ptr %38 to i64
  %40 = and i64 %39, -2
  %41 = inttoptr i64 %40 to ptr
  %42 = call i64 @Dsd_NodeReadMark(ptr noundef %41)
  %43 = trunc i64 %42 to i32
  store i32 %43, ptr %22, align 4, !tbaa !16
  %44 = load i32, ptr %22, align 4, !tbaa !16
  %45 = load ptr, ptr %18, align 8, !tbaa !32
  %46 = ptrtoint ptr %45 to i64
  %47 = and i64 %46, 1
  %48 = trunc i64 %47 to i32
  %49 = call i32 @Abc_LitNotCond(i32 noundef %44, i32 noundef %48)
  store i32 %49, ptr %22, align 4, !tbaa !16
  %50 = load ptr, ptr %12, align 8, !tbaa !12
  %51 = load i32, ptr %22, align 4, !tbaa !16
  call void @Vec_IntPush(ptr noundef %50, i32 noundef %51)
  br label %52

52:                                               ; preds = %34
  %53 = load i32, ptr %20, align 4, !tbaa !16
  %54 = add nsw i32 %53, 1
  store i32 %54, ptr %20, align 4, !tbaa !16
  br label %30, !llvm.loop !34

55:                                               ; preds = %30
  %56 = load i32, ptr %19, align 4, !tbaa !16
  switch i32 %56, label %111 [
    i32 1, label %57
    i32 3, label %58
    i32 4, label %74
    i32 5, label %90
  ]

57:                                               ; preds = %55
  store i32 1, ptr %22, align 4, !tbaa !16
  br label %112

58:                                               ; preds = %55
  store i32 0, ptr %22, align 4, !tbaa !16
  store i32 0, ptr %20, align 4, !tbaa !16
  br label %59

59:                                               ; preds = %70, %58
  %60 = load i32, ptr %20, align 4, !tbaa !16
  %61 = load i32, ptr %21, align 4, !tbaa !16
  %62 = icmp slt i32 %60, %61
  br i1 %62, label %63, label %73

63:                                               ; preds = %59
  %64 = load ptr, ptr %10, align 8, !tbaa !10
  %65 = load i32, ptr %22, align 4, !tbaa !16
  %66 = load ptr, ptr %12, align 8, !tbaa !12
  %67 = load i32, ptr %20, align 4, !tbaa !16
  %68 = call i32 @Vec_IntEntry(ptr noundef %66, i32 noundef %67)
  %69 = call i32 @Gia_ManHashOr(ptr noundef %64, i32 noundef %65, i32 noundef %68)
  store i32 %69, ptr %22, align 4, !tbaa !16
  br label %70

70:                                               ; preds = %63
  %71 = load i32, ptr %20, align 4, !tbaa !16
  %72 = add nsw i32 %71, 1
  store i32 %72, ptr %20, align 4, !tbaa !16
  br label %59, !llvm.loop !35

73:                                               ; preds = %59
  br label %112

74:                                               ; preds = %55
  store i32 0, ptr %22, align 4, !tbaa !16
  store i32 0, ptr %20, align 4, !tbaa !16
  br label %75

75:                                               ; preds = %86, %74
  %76 = load i32, ptr %20, align 4, !tbaa !16
  %77 = load i32, ptr %21, align 4, !tbaa !16
  %78 = icmp slt i32 %76, %77
  br i1 %78, label %79, label %89

79:                                               ; preds = %75
  %80 = load ptr, ptr %10, align 8, !tbaa !10
  %81 = load i32, ptr %22, align 4, !tbaa !16
  %82 = load ptr, ptr %12, align 8, !tbaa !12
  %83 = load i32, ptr %20, align 4, !tbaa !16
  %84 = call i32 @Vec_IntEntry(ptr noundef %82, i32 noundef %83)
  %85 = call i32 @Gia_ManHashXor(ptr noundef %80, i32 noundef %81, i32 noundef %84)
  store i32 %85, ptr %22, align 4, !tbaa !16
  br label %86

86:                                               ; preds = %79
  %87 = load i32, ptr %20, align 4, !tbaa !16
  %88 = add nsw i32 %87, 1
  store i32 %88, ptr %20, align 4, !tbaa !16
  br label %75, !llvm.loop !36

89:                                               ; preds = %75
  br label %112

90:                                               ; preds = %55
  %91 = load ptr, ptr %15, align 8, !tbaa !3
  %92 = load ptr, ptr %9, align 8, !tbaa !32
  %93 = call ptr @Dsd_TreeGetPrimeFunction(ptr noundef %91, ptr noundef %92)
  store ptr %93, ptr %16, align 8, !tbaa !8
  %94 = load ptr, ptr %16, align 8, !tbaa !8
  call void @Cudd_Ref(ptr noundef %94)
  %95 = load ptr, ptr %15, align 8, !tbaa !3
  %96 = load ptr, ptr %11, align 8, !tbaa !3
  %97 = load ptr, ptr %16, align 8, !tbaa !8
  store ptr %97, ptr %17, align 8, !tbaa !8
  %98 = call ptr @Extra_TransferLevelByLevel(ptr noundef %95, ptr noundef %96, ptr noundef %97)
  store ptr %98, ptr %16, align 8, !tbaa !8
  %99 = load ptr, ptr %16, align 8, !tbaa !8
  call void @Cudd_Ref(ptr noundef %99)
  %100 = load ptr, ptr %15, align 8, !tbaa !3
  %101 = load ptr, ptr %17, align 8, !tbaa !8
  call void @Cudd_RecursiveDeref(ptr noundef %100, ptr noundef %101)
  %102 = load ptr, ptr %11, align 8, !tbaa !3
  %103 = load ptr, ptr %16, align 8, !tbaa !8
  %104 = load ptr, ptr %10, align 8, !tbaa !10
  %105 = load ptr, ptr %12, align 8, !tbaa !12
  %106 = load ptr, ptr %13, align 8, !tbaa !14
  %107 = load ptr, ptr %14, align 8, !tbaa !14
  %108 = call i32 @Gia_ManRebuildIsop(ptr noundef %102, ptr noundef %103, ptr noundef %104, ptr noundef %105, ptr noundef %106, ptr noundef %107)
  store i32 %108, ptr %22, align 4, !tbaa !16
  %109 = load ptr, ptr %11, align 8, !tbaa !3
  %110 = load ptr, ptr %16, align 8, !tbaa !8
  call void @Cudd_RecursiveDeref(ptr noundef %109, ptr noundef %110)
  br label %112

111:                                              ; preds = %55
  br label %112

112:                                              ; preds = %111, %90, %89, %73, %57
  %113 = load ptr, ptr %9, align 8, !tbaa !32
  %114 = load i32, ptr %22, align 4, !tbaa !16
  %115 = sext i32 %114 to i64
  call void @Dsd_NodeSetMark(ptr noundef %113, i64 noundef %115)
  %116 = load i32, ptr %22, align 4, !tbaa !16
  call void @llvm.lifetime.end.p0(i64 4, ptr %22) #10
  call void @llvm.lifetime.end.p0(i64 4, ptr %21) #10
  call void @llvm.lifetime.end.p0(i64 4, ptr %20) #10
  call void @llvm.lifetime.end.p0(i64 4, ptr %19) #10
  call void @llvm.lifetime.end.p0(i64 8, ptr %18) #10
  call void @llvm.lifetime.end.p0(i64 8, ptr %17) #10
  call void @llvm.lifetime.end.p0(i64 8, ptr %16) #10
  call void @llvm.lifetime.end.p0(i64 8, ptr %15) #10
  ret i32 %116
}