; Function Attrs: nounwind uwtable
define i32 @Gia_ManRebuildNode(ptr noundef %0, ptr noundef %1, ptr noundef %2, ptr noundef %3, ptr noundef initializes((4, 8)) %4, ptr noundef captures(none) %5, ptr noundef %6) local_unnamed_addr #0 {
  %8 = tail call ptr @Dsd_ManagerReadDd(ptr noundef %0) #14
  %9 = tail call i32 @Dsd_NodeReadType(ptr noundef %1) #14
  %10 = tail call i32 @Dsd_NodeReadDecsNum(ptr noundef %1) #14
  %11 = getelementptr inbounds nuw i8, ptr %4, i64 4
  store i32 0, ptr %11, align 4, !tbaa !3
  %12 = icmp sgt i32 %10, 0
  br i1 %12, label %.lr.ph, label %._crit_edge

.lr.ph:                                           ; preds = %7
  %.phi.trans.insert.i = getelementptr inbounds nuw i8, ptr %4, i64 8
  br label %13

13:                                               ; preds = %.lr.ph, %Vec_IntPush.exit
  %.04855 = phi i32 [ 0, %.lr.ph ], [ %51, %Vec_IntPush.exit ]
  %14 = tail call ptr @Dsd_NodeReadDec(ptr noundef %1, i32 noundef %.04855) #14
  %15 = ptrtoint ptr %14 to i64
  %16 = and i64 %15, -2
  %17 = inttoptr i64 %16 to ptr
  %18 = tail call i64 @Dsd_NodeReadMark(ptr noundef %17) #14
  %19 = trunc i64 %18 to i32
  %20 = trunc i64 %15 to i32
  %21 = and i32 %20, 1
  %22 = xor i32 %21, %19
  %23 = load i32, ptr %11, align 4, !tbaa !3
  %24 = load i32, ptr %4, align 8, !tbaa !20
  %25 = icmp eq i32 %23, %24
  br i1 %25, label %26, label %.Vec_IntGrow.exit10_crit_edge.i

.Vec_IntGrow.exit10_crit_edge.i:                  ; preds = %13
  %.pre.i = load ptr, ptr %.phi.trans.insert.i, align 8, !tbaa !21
  br label %Vec_IntPush.exit

26:                                               ; preds = %13
  %27 = icmp slt i32 %23, 16
  br i1 %27, label %28, label %35

28:                                               ; preds = %26
  %29 = load ptr, ptr %.phi.trans.insert.i, align 8, !tbaa !21
  %.not9.i.i = icmp eq ptr %29, null
  br i1 %.not9.i.i, label %32, label %30

30:                                               ; preds = %28
  %31 = tail call dereferenceable_or_null(64) ptr @realloc(ptr noundef nonnull %29, i64 noundef 64) #15
  br label %Vec_IntGrow.exit.i

32:                                               ; preds = %28
  %33 = tail call noalias dereferenceable_or_null(64) ptr @malloc(i64 noundef 64) #16
  br label %Vec_IntGrow.exit.i

Vec_IntGrow.exit.i:                               ; preds = %32, %30
  %34 = phi ptr [ %31, %30 ], [ %33, %32 ]
  store ptr %34, ptr %.phi.trans.insert.i, align 8, !tbaa !21
  store i32 16, ptr %4, align 8, !tbaa !20
  br label %Vec_IntPush.exit

35:                                               ; preds = %26
  %36 = shl nuw nsw i32 %23, 1
  %37 = load ptr, ptr %.phi.trans.insert.i, align 8, !tbaa !21
  %.not9.i9.i = icmp eq ptr %37, null
  %38 = zext nneg i32 %36 to i64
  %39 = shl nuw nsw i64 %38, 2
  br i1 %.not9.i9.i, label %42, label %40

40:                                               ; preds = %35
  %41 = tail call ptr @realloc(ptr noundef nonnull %37, i64 noundef %39) #15
  br label %44

42:                                               ; preds = %35
  %43 = tail call noalias ptr @malloc(i64 noundef %39) #16
  br label %44

44:                                               ; preds = %42, %40
  %45 = phi ptr [ %41, %40 ], [ %43, %42 ]
  store ptr %45, ptr %.phi.trans.insert.i, align 8, !tbaa !21
  store i32 %36, ptr %4, align 8, !tbaa !20
  br label %Vec_IntPush.exit

Vec_IntPush.exit:                                 ; preds = %.Vec_IntGrow.exit10_crit_edge.i, %Vec_IntGrow.exit.i, %44
  %46 = phi ptr [ %.pre.i, %.Vec_IntGrow.exit10_crit_edge.i ], [ %45, %44 ], [ %34, %Vec_IntGrow.exit.i ]
  %47 = load i32, ptr %11, align 4, !tbaa !3
  %48 = add nsw i32 %47, 1
  store i32 %48, ptr %11, align 4, !tbaa !3
  %49 = sext i32 %47 to i64
  %50 = getelementptr inbounds i32, ptr %46, i64 %49
  store i32 %22, ptr %50, align 4, !tbaa !22
  %51 = add nuw nsw i32 %.04855, 1
  %exitcond.not = icmp eq i32 %51, %10
  br i1 %exitcond.not, label %._crit_edge, label %13, !llvm.loop !23

._crit_edge:                                      ; preds = %Vec_IntPush.exit, %7
  %.0.lcssa = phi i32 [ -1, %7 ], [ %22, %Vec_IntPush.exit ]
  switch i32 %9, label %.loopexit [
    i32 1, label %54
    i32 3, label %.preheader
    i32 4, label %.preheader53
    i32 5, label %63
  ]

.preheader53:                                     ; preds = %._crit_edge
  br i1 %12, label %.lr.ph58, label %.loopexit

.lr.ph58:                                         ; preds = %.preheader53
  %52 = getelementptr i8, ptr %4, i64 8
  %wide.trip.count = zext nneg i32 %10 to i64
  br label %59

.preheader:                                       ; preds = %._crit_edge
  br i1 %12, label %.lr.ph62, label %.loopexit

.lr.ph62:                                         ; preds = %.preheader
  %53 = getelementptr i8, ptr %4, i64 8
  %wide.trip.count72 = zext nneg i32 %10 to i64
  br label %55

54:                                               ; preds = %._crit_edge
  br label %.loopexit

55:                                               ; preds = %.lr.ph62, %55
  %indvars.iv69 = phi i64 [ 0, %.lr.ph62 ], [ %indvars.iv.next70, %55 ]
  %.261 = phi i32 [ 0, %.lr.ph62 ], [ %58, %55 ]
  %.val = load ptr, ptr %53, align 8, !tbaa !21
  %56 = getelementptr inbounds nuw i32, ptr %.val, i64 %indvars.iv69
  %57 = load i32, ptr %56, align 4, !tbaa !22
  %58 = tail call i32 @Gia_ManHashOr(ptr noundef %2, i32 noundef %.261, i32 noundef %57) #14
  %indvars.iv.next70 = add nuw nsw i64 %indvars.iv69, 1
  %exitcond73.not = icmp eq i64 %indvars.iv.next70, %wide.trip.count72
  br i1 %exitcond73.not, label %.loopexit, label %55, !llvm.loop !24

59:                                               ; preds = %.lr.ph58, %59
  %indvars.iv = phi i64 [ 0, %.lr.ph58 ], [ %indvars.iv.next, %59 ]
  %.357 = phi i32 [ 0, %.lr.ph58 ], [ %62, %59 ]
  %.val52 = load ptr, ptr %52, align 8, !tbaa !21
  %60 = getelementptr inbounds nuw i32, ptr %.val52, i64 %indvars.iv
  %61 = load i32, ptr %60, align 4, !tbaa !22
  %62 = tail call i32 @Gia_ManHashXor(ptr noundef %2, i32 noundef %.357, i32 noundef %61) #14
  %indvars.iv.next = add nuw nsw i64 %indvars.iv, 1
  %exitcond68.not = icmp eq i64 %indvars.iv.next, %wide.trip.count
  br i1 %exitcond68.not, label %.loopexit, label %59, !llvm.loop !25

63:                                               ; preds = %._crit_edge
  %64 = tail call ptr @Dsd_TreeGetPrimeFunction(ptr noundef %8, ptr noundef %1) #14
  tail call void @Cudd_Ref(ptr noundef %64) #14
  %65 = tail call ptr @Extra_TransferLevelByLevel(ptr noundef %8, ptr noundef %3, ptr noundef %64) #14
  tail call void @Cudd_Ref(ptr noundef %65) #14
  tail call void @Cudd_RecursiveDeref(ptr noundef %8, ptr noundef %64) #14
  %66 = tail call i32 @Gia_ManRebuildIsop(ptr noundef %3, ptr noundef %65, ptr noundef %2, ptr noundef nonnull %4, ptr noundef %5, ptr noundef %6)
  tail call void @Cudd_RecursiveDeref(ptr noundef %3, ptr noundef %65) #14
  br label %.loopexit

.loopexit:                                        ; preds = %59, %55, %.preheader53, %.preheader, %._crit_edge, %63, %54
  %.1 = phi i32 [ %.0.lcssa, %._crit_edge ], [ %66, %63 ], [ 1, %54 ], [ 0, %.preheader ], [ 0, %.preheader53 ], [ %58, %55 ], [ %62, %59 ]
  %67 = sext i32 %.1 to i64
  tail call void @Dsd_NodeSetMark(ptr noundef %1, i64 noundef %67) #14
  ret i32 %.1
}